target datalayout = "e-m:e-p270:32:32-p271:32:32-p272:64:64-i64:64-i128:128-f80:128-n8:16:32:64-S128"
target triple = "x86_64-pc-linux-gnu"

%struct.xtp_traffic_spec1 = type { i16, i8, i8, i32, i32, i32, i32, i32 }

@hf_xtp_tspec_tlen = internal global i32 0, align 4
@hf_xtp_tspec_service = internal global i32 0, align 4
@hf_xtp_tspec_tformat = internal global i32 0, align 4
@hf_xtp_tspec_traffic = internal global i32 0, align 4
@hf_xtp_tspec_maxdata = internal global i32 0, align 4
@hf_xtp_tspec_inrate = internal global i32 0, align 4
@hf_xtp_tspec_inburst = internal global i32 0, align 4
@hf_xtp_tspec_outrate = internal global i32 0, align 4
@hf_xtp_tspec_outburst = internal global i32 0, align 4
@ett_xtp_tspec = internal global i32 0, align 4
@.str.188 = private unnamed_addr constant [31 x i8] c", bogus length(%u, must be %u)\00", align 1
@.str.193 = private unnamed_addr constant [40 x i8] c", bogus length(%u, must be at least %u)\00", align 1
@.str.194 = private unnamed_addr constant [39 x i8] c", bogus length(%u, must be at most %u)\00", align 1
@.str.198 = private unnamed_addr constant [18 x i8] c"Traffic Specifier\00", align 1
@.str.199 = private unnamed_addr constant [26 x i8] c", Unsupported tformat(%u)\00", align 1

; Function Attrs: null_pointer_is_valid sspstrong uwtable
define internal i32 @dissect_xtp_tspec(ptr noundef %0, ptr noundef %1, i32 noundef %2) #0 {
  %4 = alloca i32, align 4
  %5 = alloca ptr, align 8
  %6 = alloca ptr, align 8
  %7 = alloca i32, align 4
  %8 = alloca i32, align 4
  %9 = alloca i32, align 4
  %10 = alloca ptr, align 8
  %11 = alloca ptr, align 8
  %12 = alloca ptr, align 8
  %13 = alloca [1 x %struct.xtp_traffic_spec1], align 16
  %14 = alloca i32, align 4
  %15 = alloca i32, align 4
  store ptr %0, ptr %5, align 8
  store ptr %1, ptr %6, align 8
  store i32 %2, ptr %7, align 4
  call void @llvm.lifetime.start.p0(i64 4, ptr %8) #5
  %16 = load ptr, ptr %5, align 8
  %17 = load i32, ptr %7, align 4
  %18 = call i32 @tvb_reported_length_remaining(ptr noundef %16, i32 noundef %17)
  store i32 %18, ptr %8, align 4
  call void @llvm.lifetime.start.p0(i64 4, ptr %9) #5
  %19 = load i32, ptr %7, align 4
  store i32 %19, ptr %9, align 4
  call void @llvm.lifetime.start.p0(i64 8, ptr %10) #5
  call void @llvm.lifetime.start.p0(i64 8, ptr %11) #5
  call void @llvm.lifetime.start.p0(i64 8, ptr %12) #5
  call void @llvm.lifetime.start.p0(i64 24, ptr %13) #5
  call void @llvm.lifetime.start.p0(i64 4, ptr %14) #5
  store i32 0, ptr %14, align 4
  %20 = load ptr, ptr %6, align 8
  %21 = load ptr, ptr %5, align 8
  %22 = load i32, ptr %7, align 4
  %23 = load i32, ptr %8, align 4
  %24 = load i32, ptr @ett_xtp_tspec, align 4
  %25 = call ptr @proto_tree_add_subtree(ptr noundef %20, ptr noundef %21, i32 noundef %22, i32 noundef %23, i32 noundef %24, ptr noundef %10, ptr noundef @.str.198)
  store ptr %25, ptr %12, align 8
  %26 = load i32, ptr %8, align 4
  %27 = icmp ult i32 %26, 8
  br i1 %27, label %28, label %31

28:                                               ; preds = %3
  %29 = load ptr, ptr %10, align 8
  %30 = load i32, ptr %8, align 4
  call void (ptr, ptr, ...) @proto_item_append_text(ptr noundef %29, ptr noundef @.str.193, i32 noundef %30, i32 noundef 8)
  store i32 0, ptr %4, align 4
  store i32 1, ptr %15, align 4
  br label %244

31:                                               ; preds = %3
  %32 = load ptr, ptr %5, align 8
  %33 = load i32, ptr %7, align 4
  %34 = call zeroext i16 @tvb_get_ntohs(ptr noundef %32, i32 noundef %33)
  %35 = getelementptr inbounds [1 x %struct.xtp_traffic_spec1], ptr %13, i64 0, i64 0
  %36 = getelementptr inbounds nuw %struct.xtp_traffic_spec1, ptr %35, i32 0, i32 0
  store i16 %34, ptr %36, align 16
  %37 = load i32, ptr %7, align 4
  %38 = add i32 %37, 2
  store i32 %38, ptr %7, align 4
  %39 = load ptr, ptr %5, align 8
  %40 = load i32, ptr %7, align 4
  %41 = call zeroext i8 @tvb_get_uint8(ptr noundef %39, i32 noundef %40)
  %42 = getelementptr inbounds [1 x %struct.xtp_traffic_spec1], ptr %13, i64 0, i64 0
  %43 = getelementptr inbounds nuw %struct.xtp_traffic_spec1, ptr %42, i32 0, i32 1
  store i8 %41, ptr %43, align 2
  %44 = load i32, ptr %7, align 4
  %45 = add i32 %44, 1
  store i32 %45, ptr %7, align 4
  %46 = load ptr, ptr %5, align 8
  %47 = load i32, ptr %7, align 4
  %48 = call zeroext i8 @tvb_get_uint8(ptr noundef %46, i32 noundef %47)
  %49 = getelementptr inbounds [1 x %struct.xtp_traffic_spec1], ptr %13, i64 0, i64 0
  %50 = getelementptr inbounds nuw %struct.xtp_traffic_spec1, ptr %49, i32 0, i32 2
  store i8 %48, ptr %50, align 1
  %51 = load i32, ptr %9, align 4
  store i32 %51, ptr %7, align 4
  %52 = load ptr, ptr %12, align 8
  %53 = load i32, ptr @hf_xtp_tspec_tlen, align 4
  %54 = load ptr, ptr %5, align 8
  %55 = load i32, ptr %7, align 4
  %56 = getelementptr inbounds [1 x %struct.xtp_traffic_spec1], ptr %13, i64 0, i64 0
  %57 = getelementptr inbounds nuw %struct.xtp_traffic_spec1, ptr %56, i32 0, i32 0
  %58 = load i16, ptr %57, align 16
  %59 = zext i16 %58 to i32
  %60 = call ptr @proto_tree_add_uint(ptr noundef %52, i32 noundef %53, ptr noundef %54, i32 noundef %55, i32 noundef 2, i32 noundef %59)
  store ptr %60, ptr %10, align 8
  %61 = load i32, ptr %7, align 4
  %62 = add i32 %61, 2
  store i32 %62, ptr %7, align 4
  %63 = getelementptr inbounds [1 x %struct.xtp_traffic_spec1], ptr %13, i64 0, i64 0
  %64 = getelementptr inbounds nuw %struct.xtp_traffic_spec1, ptr %63, i32 0, i32 0
  %65 = load i16, ptr %64, align 16
  %66 = zext i16 %65 to i32
  %67 = load i32, ptr %8, align 4
  %68 = icmp ugt i32 %66, %67
  br i1 %68, label %69, label %76

69:                                               ; preds = %31
  %70 = load ptr, ptr %10, align 8
  %71 = getelementptr inbounds [1 x %struct.xtp_traffic_spec1], ptr %13, i64 0, i64 0
  %72 = getelementptr inbounds nuw %struct.xtp_traffic_spec1, ptr %71, i32 0, i32 0
  %73 = load i16, ptr %72, align 16
  %74 = zext i16 %73 to i32
  %75 = load i32, ptr %8, align 4
  call void (ptr, ptr, ...) @proto_item_append_text(ptr noundef %70, ptr noundef @.str.194, i32 noundef %74, i32 noundef %75)
  store i32 1, ptr %14, align 4
  br label %76

76:                                               ; preds = %69, %31
  %77 = load ptr, ptr %12, align 8
  %78 = load i32, ptr @hf_xtp_tspec_service, align 4
  %79 = load ptr, ptr %5, align 8
  %80 = load i32, ptr %7, align 4
  %81 = getelementptr inbounds [1 x %struct.xtp_traffic_spec1], ptr %13, i64 0, i64 0
  %82 = getelementptr inbounds nuw %struct.xtp_traffic_spec1, ptr %81, i32 0, i32 1
  %83 = load i8, ptr %82, align 2
  %84 = zext i8 %83 to i32
  %85 = call ptr @proto_tree_add_uint(ptr noundef %77, i32 noundef %78, ptr noundef %79, i32 noundef %80, i32 noundef 1, i32 noundef %84)
  %86 = load i32, ptr %7, align 4
  %87 = add i32 %86, 1
  store i32 %87, ptr %7, align 4
  %88 = load ptr, ptr %12, align 8
  %89 = load i32, ptr @hf_xtp_tspec_tformat, align 4
  %90 = load ptr, ptr %5, align 8
  %91 = load i32, ptr %7, align 4
  %92 = getelementptr inbounds [1 x %struct.xtp_traffic_spec1], ptr %13, i64 0, i64 0
  %93 = getelementptr inbounds nuw %struct.xtp_traffic_spec1, ptr %92, i32 0, i32 2
  %94 = load i8, ptr %93, align 1
  %95 = zext i8 %94 to i32
  %96 = call ptr @proto_tree_add_uint(ptr noundef %88, i32 noundef %89, ptr noundef %90, i32 noundef %91, i32 noundef 1, i32 noundef %95)
  store ptr %96, ptr %11, align 8
  %97 = load i32, ptr %7, align 4
  %98 = add i32 %97, 1
  store i32 %98, ptr %7, align 4
  %99 = getelementptr inbounds [1 x %struct.xtp_traffic_spec1], ptr %13, i64 0, i64 0
  %100 = getelementptr inbounds nuw %struct.xtp_traffic_spec1, ptr %99, i32 0, i32 2
  %101 = load i8, ptr %100, align 1
  %102 = zext i8 %101 to i32
  switch i32 %102, label %129 [
    i32 0, label %103
    i32 1, label %116
  ]

103:                                              ; preds = %76
  %104 = getelementptr inbounds [1 x %struct.xtp_traffic_spec1], ptr %13, i64 0, i64 0
  %105 = getelementptr inbounds nuw %struct.xtp_traffic_spec1, ptr %104, i32 0, i32 0
  %106 = load i16, ptr %105, align 16
  %107 = zext i16 %106 to i32
  %108 = icmp ne i32 %107, 8
  br i1 %108, label %109, label %115

109:                                              ; preds = %103
  %110 = load ptr, ptr %10, align 8
  %111 = getelementptr inbounds [1 x %struct.xtp_traffic_spec1], ptr %13, i64 0, i64 0
  %112 = getelementptr inbounds nuw %struct.xtp_traffic_spec1, ptr %111, i32 0, i32 0
  %113 = load i16, ptr %112, align 16
  %114 = zext i16 %113 to i32
  call void (ptr, ptr, ...) @proto_item_append_text(ptr noundef %110, ptr noundef @.str.188, i32 noundef %114, i32 noundef 8)
  store i32 1, ptr %14, align 4
  br label %115

115:                                              ; preds = %109, %103
  br label %135

116:                                              ; preds = %76
  %117 = getelementptr inbounds [1 x %struct.xtp_traffic_spec1], ptr %13, i64 0, i64 0
  %118 = getelementptr inbounds nuw %struct.xtp_traffic_spec1, ptr %117, i32 0, i32 0
  %119 = load i16, ptr %118, align 16
  %120 = zext i16 %119 to i32
  %121 = icmp ne i32 %120, 24
  br i1 %121, label %122, label %128

122:                                              ; preds = %116
  %123 = load ptr, ptr %10, align 8
  %124 = getelementptr inbounds [1 x %struct.xtp_traffic_spec1], ptr %13, i64 0, i64 0
  %125 = getelementptr inbounds nuw %struct.xtp_traffic_spec1, ptr %124, i32 0, i32 0
  %126 = load i16, ptr %125, align 16
  %127 = zext i16 %126 to i32
  call void (ptr, ptr, ...) @proto_item_append_text(ptr noundef %123, ptr noundef @.str.188, i32 noundef %127, i32 noundef 24)
  store i32 1, ptr %14, align 4
  br label %128

128:                                              ; preds = %122, %116
  br label %135

129:                                              ; preds = %76
  %130 = load ptr, ptr %11, align 8
  %131 = getelementptr inbounds [1 x %struct.xtp_traffic_spec1], ptr %13, i64 0, i64 0
  %132 = getelementptr inbounds nuw %struct.xtp_traffic_spec1, ptr %131, i32 0, i32 2
  %133 = load i8, ptr %132, align 1
  %134 = zext i8 %133 to i32
  call void (ptr, ptr, ...) @proto_item_append_text(ptr noundef %130, ptr noundef @.str.199, i32 noundef %134)
  store i32 1, ptr %14, align 4
  br label %135

135:                                              ; preds = %129, %128, %115
  %136 = load i32, ptr %14, align 4
  %137 = icmp ne i32 %136, 0
  br i1 %137, label %138, label %142

138:                                              ; preds = %135
  %139 = load i32, ptr %7, align 4
  %140 = load i32, ptr %9, align 4
  %141 = sub i32 %139, %140
  store i32 %141, ptr %4, align 4
  store i32 1, ptr %15, align 4
  br label %244

142:                                              ; preds = %135
  %143 = getelementptr inbounds [1 x %struct.xtp_traffic_spec1], ptr %13, i64 0, i64 0
  %144 = getelementptr inbounds nuw %struct.xtp_traffic_spec1, ptr %143, i32 0, i32 2
  %145 = load i8, ptr %144, align 1
  %146 = zext i8 %145 to i32
  switch i32 %146, label %239 [
    i32 0, label %147
    i32 1, label %163
  ]

147:                                              ; preds = %142
  %148 = load ptr, ptr %5, align 8
  %149 = load i32, ptr %7, align 4
  %150 = call i32 @tvb_get_ntohl(ptr noundef %148, i32 noundef %149)
  %151 = getelementptr inbounds [1 x %struct.xtp_traffic_spec1], ptr %13, i64 0, i64 0
  %152 = getelementptr inbounds nuw %struct.xtp_traffic_spec1, ptr %151, i32 0, i32 3
  store i32 %150, ptr %152, align 4
  %153 = load ptr, ptr %12, align 8
  %154 = load i32, ptr @hf_xtp_tspec_traffic, align 4
  %155 = load ptr, ptr %5, align 8
  %156 = load i32, ptr %7, align 4
  %157 = getelementptr inbounds [1 x %struct.xtp_traffic_spec1], ptr %13, i64 0, i64 0
  %158 = getelementptr inbounds nuw %struct.xtp_traffic_spec1, ptr %157, i32 0, i32 3
  %159 = load i32, ptr %158, align 4
  %160 = call ptr @proto_tree_add_uint(ptr noundef %153, i32 noundef %154, ptr noundef %155, i32 noundef %156, i32 noundef 4, i32 noundef %159)
  %161 = load i32, ptr %7, align 4
  %162 = add i32 %161, 4
  store i32 %162, ptr %7, align 4
  br label %240

163:                                              ; preds = %142
  %164 = load ptr, ptr %5, align 8
  %165 = load i32, ptr %7, align 4
  %166 = call i32 @tvb_get_ntohl(ptr noundef %164, i32 noundef %165)
  %167 = getelementptr inbounds [1 x %struct.xtp_traffic_spec1], ptr %13, i64 0, i64 0
  %168 = getelementptr inbounds nuw %struct.xtp_traffic_spec1, ptr %167, i32 0, i32 3
  store i32 %166, ptr %168, align 4
  %169 = load ptr, ptr %12, align 8
  %170 = load i32, ptr @hf_xtp_tspec_maxdata, align 4
  %171 = load ptr, ptr %5, align 8
  %172 = load i32, ptr %7, align 4
  %173 = getelementptr inbounds [1 x %struct.xtp_traffic_spec1], ptr %13, i64 0, i64 0
  %174 = getelementptr inbounds nuw %struct.xtp_traffic_spec1, ptr %173, i32 0, i32 3
  %175 = load i32, ptr %174, align 4
  %176 = call ptr @proto_tree_add_uint(ptr noundef %169, i32 noundef %170, ptr noundef %171, i32 noundef %172, i32 noundef 4, i32 noundef %175)
  %177 = load i32, ptr %7, align 4
  %178 = add i32 %177, 4
  store i32 %178, ptr %7, align 4
  %179 = load ptr, ptr %5, align 8
  %180 = load i32, ptr %7, align 4
  %181 = call i32 @tvb_get_ntohl(ptr noundef %179, i32 noundef %180)
  %182 = getelementptr inbounds [1 x %struct.xtp_traffic_spec1], ptr %13, i64 0, i64 0
  %183 = getelementptr inbounds nuw %struct.xtp_traffic_spec1, ptr %182, i32 0, i32 4
  store i32 %181, ptr %183, align 8
  %184 = load ptr, ptr %12, align 8
  %185 = load i32, ptr @hf_xtp_tspec_inrate, align 4
  %186 = load ptr, ptr %5, align 8
  %187 = load i32, ptr %7, align 4
  %188 = getelementptr inbounds [1 x %struct.xtp_traffic_spec1], ptr %13, i64 0, i64 0
  %189 = getelementptr inbounds nuw %struct.xtp_traffic_spec1, ptr %188, i32 0, i32 4
  %190 = load i32, ptr %189, align 8
  %191 = call ptr @proto_tree_add_uint(ptr noundef %184, i32 noundef %185, ptr noundef %186, i32 noundef %187, i32 noundef 4, i32 noundef %190)
  %192 = load i32, ptr %7, align 4
  %193 = add i32 %192, 4
  store i32 %193, ptr %7, align 4
  %194 = load ptr, ptr %5, align 8
  %195 = load i32, ptr %7, align 4
  %196 = call i32 @tvb_get_ntohl(ptr noundef %194, i32 noundef %195)
  %197 = getelementptr inbounds [1 x %struct.xtp_traffic_spec1], ptr %13, i64 0, i64 0
  %198 = getelementptr inbounds nuw %struct.xtp_traffic_spec1, ptr %197, i32 0, i32 5
  store i32 %196, ptr %198, align 4
  %199 = load ptr, ptr %12, align 8
  %200 = load i32, ptr @hf_xtp_tspec_inburst, align 4
  %201 = load ptr, ptr %5, align 8
  %202 = load i32, ptr %7, align 4
  %203 = getelementptr inbounds [1 x %struct.xtp_traffic_spec1], ptr %13, i64 0, i64 0
  %204 = getelementptr inbounds nuw %struct.xtp_traffic_spec1, ptr %203, i32 0, i32 5
  %205 = load i32, ptr %204, align 4
  %206 = call ptr @proto_tree_add_uint(ptr noundef %199, i32 noundef %200, ptr noundef %201, i32 noundef %202, i32 noundef 4, i32 noundef %205)
  %207 = load i32, ptr %7, align 4
  %208 = add i32 %207, 4
  store i32 %208, ptr %7, align 4
  %209 = load ptr, ptr %5, align 8
  %210 = load i32, ptr %7, align 4
  %211 = call i32 @tvb_get_ntohl(ptr noundef %209, i32 noundef %210)
  %212 = getelementptr inbounds [1 x %struct.xtp_traffic_spec1], ptr %13, i64 0, i64 0
  %213 = getelementptr inbounds nuw %struct.xtp_traffic_spec1, ptr %212, i32 0, i32 6
  store i32 %211, ptr %213, align 16
  %214 = load ptr, ptr %12, align 8
  %215 = load i32, ptr @hf_xtp_tspec_outrate, align 4
  %216 = load ptr, ptr %5, align 8
  %217 = load i32, ptr %7, align 4
  %218 = getelementptr inbounds [1 x %struct.xtp_traffic_spec1], ptr %13, i64 0, i64 0
  %219 = getelementptr inbounds nuw %struct.xtp_traffic_spec1, ptr %218, i32 0, i32 6
  %220 = load i32, ptr %219, align 16
  %221 = call ptr @proto_tree_add_uint(ptr noundef %214, i32 noundef %215, ptr noundef %216, i32 noundef %217, i32 noundef 4, i32 noundef %220)
  %222 = load i32, ptr %7, align 4
  %223 = add i32 %222, 4
  store i32 %223, ptr %7, align 4
  %224 = load ptr, ptr %5, align 8
  %225 = load i32, ptr %7, align 4
  %226 = call i32 @tvb_get_ntohl(ptr noundef %224, i32 noundef %225)
  %227 = getelementptr inbounds [1 x %struct.xtp_traffic_spec1], ptr %13, i64 0, i64 0
  %228 = getelementptr inbounds nuw %struct.xtp_traffic_spec1, ptr %227, i32 0, i32 7
  store i32 %226, ptr %228, align 4
  %229 = load ptr, ptr %12, align 8
  %230 = load i32, ptr @hf_xtp_tspec_outburst, align 4
  %231 = load ptr, ptr %5, align 8
  %232 = load i32, ptr %7, align 4
  %233 = getelementptr inbounds [1 x %struct.xtp_traffic_spec1], ptr %13, i64 0, i64 0
  %234 = getelementptr inbounds nuw %struct.xtp_traffic_spec1, ptr %233, i32 0, i32 7
  %235 = load i32, ptr %234, align 4
  %236 = call ptr @proto_tree_add_uint(ptr noundef %229, i32 noundef %230, ptr noundef %231, i32 noundef %232, i32 noundef 4, i32 noundef %235)
  %237 = load i32, ptr %7, align 4
  %238 = add i32 %237, 4
  store i32 %238, ptr %7, align 4
  br label %240

239:                                              ; preds = %142
  br label %240

240:                                              ; preds = %239, %163, %147
  %241 = load i32, ptr %7, align 4
  %242 = load i32, ptr %9, align 4
  %243 = sub i32 %241, %242
  store i32 %243, ptr %4, align 4
  store i32 1, ptr %15, align 4
  br label %244

244:                                              ; preds = %240, %138, %28
  call void @llvm.lifetime.end.p0(i64 4, ptr %14) #5
  call void @llvm.lifetime.end.p0(i64 24, ptr %13) #5
  call void @llvm.lifetime.end.p0(i64 8, ptr %12) #5
  call void @llvm.lifetime.end.p0(i64 8, ptr %11) #5
  call void @llvm.lifetime.end.p0(i64 8, ptr %10) #5
  call void @llvm.lifetime.end.p0(i64 4, ptr %9) #5
  call void @llvm.lifetime.end.p0(i64 4, ptr %8) #5
  %245 = load i32, ptr %4, align 4
  ret i32 %245
}