; Function Attrs: null_pointer_is_valid sspstrong uwtable
define internal fastcc void @dissect_xtp_tspec(ptr noundef %0, ptr noundef %1, i32 noundef range(i32 48, 81) %2) unnamed_addr #0 {
  %4 = alloca ptr, align 8
  %5 = tail call i32 @tvb_reported_length_remaining(ptr noundef %0, i32 noundef %2)
  call void @llvm.lifetime.start.p0(i64 8, ptr nonnull %4) #7
  %6 = load i32, ptr @ett_xtp_tspec, align 4
  %7 = call ptr @proto_tree_add_subtree(ptr noundef %1, ptr noundef %0, i32 noundef %2, i32 noundef %5, i32 noundef %6, ptr noundef nonnull %4, ptr noundef nonnull @.str.198)
  %8 = icmp ult i32 %5, 8
  br i1 %8, label %9, label %11

9:                                                ; preds = %3
  %10 = load ptr, ptr %4, align 8
  call void (ptr, ptr, ...) @proto_item_append_text(ptr noundef %10, ptr noundef nonnull @.str.193, i32 noundef %5, i32 noundef 8)
  br label %.thread

11:                                               ; preds = %3
  %12 = call zeroext i16 @tvb_get_ntohs(ptr noundef %0, i32 noundef %2)
  %13 = add nuw nsw i32 %2, 2
  %14 = call zeroext i8 @tvb_get_uint8(ptr noundef %0, i32 noundef %13)
  %15 = add nuw nsw i32 %2, 3
  %16 = call zeroext i8 @tvb_get_uint8(ptr noundef %0, i32 noundef %15)
  %17 = load i32, ptr @hf_xtp_tspec_tlen, align 4
  %18 = zext i16 %12 to i32
  %19 = call ptr @proto_tree_add_uint(ptr noundef %7, i32 noundef %17, ptr noundef %0, i32 noundef %2, i32 noundef 2, i32 noundef %18)
  store ptr %19, ptr %4, align 8
  %.not94 = icmp ult i32 %5, %18
  br i1 %.not94, label %20, label %21

20:                                               ; preds = %11
  call void (ptr, ptr, ...) @proto_item_append_text(ptr noundef %19, ptr noundef nonnull @.str.194, i32 noundef %18, i32 noundef %5)
  br label %21

21:                                               ; preds = %20, %11
  %22 = load i32, ptr @hf_xtp_tspec_service, align 4
  %23 = zext i8 %14 to i32
  %24 = call ptr @proto_tree_add_uint(ptr noundef %7, i32 noundef %22, ptr noundef %0, i32 noundef %13, i32 noundef 1, i32 noundef %23)
  %25 = load i32, ptr @hf_xtp_tspec_tformat, align 4
  %26 = zext i8 %16 to i32
  %27 = call ptr @proto_tree_add_uint(ptr noundef %7, i32 noundef %25, ptr noundef %0, i32 noundef %15, i32 noundef 1, i32 noundef %26)
  %28 = add nuw nsw i32 %2, 4
  switch i8 %16, label %35 [
    i8 0, label %29
    i8 1, label %32
  ]

29:                                               ; preds = %21
  %.not90 = icmp eq i16 %12, 8
  br i1 %.not90, label %36, label %30

30:                                               ; preds = %29
  %31 = load ptr, ptr %4, align 8
  call void (ptr, ptr, ...) @proto_item_append_text(ptr noundef %31, ptr noundef nonnull @.str.188, i32 noundef %18, i32 noundef 8)
  br label %.thread

32:                                               ; preds = %21
  %.not = icmp eq i16 %12, 24
  br i1 %.not, label %.thread95, label %33

33:                                               ; preds = %32
  %34 = load ptr, ptr %4, align 8
  call void (ptr, ptr, ...) @proto_item_append_text(ptr noundef %34, ptr noundef nonnull @.str.188, i32 noundef %18, i32 noundef 24)
  br label %.thread

35:                                               ; preds = %21
  call void (ptr, ptr, ...) @proto_item_append_text(ptr noundef %27, ptr noundef nonnull @.str.199, i32 noundef %26)
  br label %.thread

36:                                               ; preds = %29
  br i1 %.not94, label %.thread, label %37

.thread95:                                        ; preds = %32
  br i1 %.not94, label %.thread, label %.thread96

37:                                               ; preds = %36
  %switch = icmp eq i8 %16, 0
  br i1 %switch, label %54, label %.thread96

.thread96:                                        ; preds = %.thread95, %37
  %38 = call i32 @tvb_get_ntohl(ptr noundef %0, i32 noundef %28)
  %39 = load i32, ptr @hf_xtp_tspec_maxdata, align 4
  %40 = call ptr @proto_tree_add_uint(ptr noundef %7, i32 noundef %39, ptr noundef %0, i32 noundef %28, i32 noundef 4, i32 noundef %38)
  %41 = add nuw nsw i32 %2, 8
  %42 = call i32 @tvb_get_ntohl(ptr noundef %0, i32 noundef %41)
  %43 = load i32, ptr @hf_xtp_tspec_inrate, align 4
  %44 = call ptr @proto_tree_add_uint(ptr noundef %7, i32 noundef %43, ptr noundef %0, i32 noundef %41, i32 noundef 4, i32 noundef %42)
  %45 = add nuw nsw i32 %2, 12
  %46 = call i32 @tvb_get_ntohl(ptr noundef %0, i32 noundef %45)
  %47 = load i32, ptr @hf_xtp_tspec_inburst, align 4
  %48 = call ptr @proto_tree_add_uint(ptr noundef %7, i32 noundef %47, ptr noundef %0, i32 noundef %45, i32 noundef 4, i32 noundef %46)
  %49 = add nuw nsw i32 %2, 16
  %50 = call i32 @tvb_get_ntohl(ptr noundef %0, i32 noundef %49)
  %51 = load i32, ptr @hf_xtp_tspec_outrate, align 4
  %52 = call ptr @proto_tree_add_uint(ptr noundef %7, i32 noundef %51, ptr noundef %0, i32 noundef %49, i32 noundef 4, i32 noundef %50)
  %53 = add nuw nsw i32 %2, 20
  br label %54

54:                                               ; preds = %37, %.thread96
  %.sink101 = phi i32 [ %53, %.thread96 ], [ %28, %37 ]
  %hf_xtp_tspec_outburst.sink = phi ptr [ @hf_xtp_tspec_outburst, %.thread96 ], [ @hf_xtp_tspec_traffic, %37 ]
  %55 = call i32 @tvb_get_ntohl(ptr noundef %0, i32 noundef %.sink101)
  %56 = load i32, ptr %hf_xtp_tspec_outburst.sink, align 4
  %57 = call ptr @proto_tree_add_uint(ptr noundef %7, i32 noundef %56, ptr noundef %0, i32 noundef %.sink101, i32 noundef 4, i32 noundef %55)
  br label %.thread

.thread:                                          ; preds = %.thread95, %30, %33, %35, %36, %54, %9
  call void @llvm.lifetime.end.p0(i64 8, ptr nonnull %4) #7
  ret void
}